target datalayout = "e-m:e-p270:32:32-p271:32:32-p272:64:64-i64:64-i128:128-f80:128-n8:16:32:64-S128"
target triple = "x86_64-pc-linux-gnu"

%struct.FunctionCallInfoBaseData = type { ptr, ptr, ptr, i32, i8, i16, [0 x %struct.NullableDatum] }
%struct.NullableDatum = type { i64, i8 }
%struct.int2vector = type { i32, i32, i32, i32, i32, i32, [0 x i16] }
%union.anon = type { %struct.FunctionCallInfoBaseData, [48 x i8] }

@.str.2 = private unnamed_addr constant [6 x i8] c"int.c\00", align 1
@.str.4 = private unnamed_addr constant [24 x i8] c"invalid int2vector data\00", align 1
@__func__.int2vectorrecv = private unnamed_addr constant [15 x i8] c"int2vectorrecv\00", align 1

; Function Attrs: inlinehint nounwind uwtable
define internal i64 @Int32GetDatum(i32 noundef %0) #2 {
  %2 = alloca i32, align 4
  store i32 %0, ptr %2, align 4
  %3 = load i32, ptr %2, align 4
  %4 = sext i32 %3 to i64
  ret i64 %4
}

; Function Attrs: inlinehint nounwind uwtable
define internal i64 @ObjectIdGetDatum(i32 noundef %0) #2 {
  %2 = alloca i32, align 4
  store i32 %0, ptr %2, align 4
  %3 = load i32, ptr %2, align 4
  %4 = zext i32 %3 to i64
  ret i64 %4
}

; Function Attrs: inlinehint nounwind uwtable
define internal i64 @PointerGetDatum(ptr noundef %0) #2 {
  %2 = alloca ptr, align 8
  store ptr %0, ptr %2, align 8
  %3 = load ptr, ptr %2, align 8
  %4 = ptrtoint ptr %3 to i64
  ret i64 %4
}

; Function Attrs: inlinehint nounwind uwtable
define internal ptr @DatumGetPointer(i64 noundef %0) #2 {
  %2 = alloca i64, align 8
  store i64 %0, ptr %2, align 8
  %3 = load i64, ptr %2, align 8
  %4 = inttoptr i64 %3 to ptr
  ret ptr %4
}

; Function Attrs: nounwind uwtable
define dso_local i64 @int2vectorrecv(ptr noundef %0) #0 {
  %2 = alloca ptr, align 8
  %3 = alloca %union.anon, align 8
  %4 = alloca ptr, align 8
  %5 = alloca ptr, align 8
  %6 = alloca ptr, align 8
  store ptr %0, ptr %2, align 8
  call void @llvm.lifetime.start.p0(i64 80, ptr %3) #10
  call void @llvm.lifetime.start.p0(i64 8, ptr %4) #10
  store ptr %3, ptr %4, align 8
  call void @llvm.lifetime.start.p0(i64 8, ptr %5) #10
  %7 = load ptr, ptr %2, align 8
  %8 = getelementptr inbounds nuw %struct.FunctionCallInfoBaseData, ptr %7, i32 0, i32 6
  %9 = getelementptr inbounds [0 x %struct.NullableDatum], ptr %8, i64 0, i64 0
  %10 = getelementptr inbounds nuw %struct.NullableDatum, ptr %9, i32 0, i32 0
  %11 = load i64, ptr %10, align 8
  %12 = call ptr @DatumGetPointer(i64 noundef %11)
  store ptr %12, ptr %5, align 8
  call void @llvm.lifetime.start.p0(i64 8, ptr %6) #10
  br label %13

13:                                               ; preds = %1
  %14 = load ptr, ptr %2, align 8
  %15 = getelementptr inbounds nuw %struct.FunctionCallInfoBaseData, ptr %14, i32 0, i32 0
  %16 = load ptr, ptr %15, align 8
  %17 = load ptr, ptr %4, align 8
  %18 = getelementptr inbounds nuw %struct.FunctionCallInfoBaseData, ptr %17, i32 0, i32 0
  store ptr %16, ptr %18, align 8
  %19 = load ptr, ptr %4, align 8
  %20 = getelementptr inbounds nuw %struct.FunctionCallInfoBaseData, ptr %19, i32 0, i32 1
  store ptr null, ptr %20, align 8
  %21 = load ptr, ptr %4, align 8
  %22 = getelementptr inbounds nuw %struct.FunctionCallInfoBaseData, ptr %21, i32 0, i32 2
  store ptr null, ptr %22, align 8
  %23 = load ptr, ptr %4, align 8
  %24 = getelementptr inbounds nuw %struct.FunctionCallInfoBaseData, ptr %23, i32 0, i32 3
  store i32 0, ptr %24, align 8
  %25 = load ptr, ptr %4, align 8
  %26 = getelementptr inbounds nuw %struct.FunctionCallInfoBaseData, ptr %25, i32 0, i32 4
  store i8 0, ptr %26, align 4
  %27 = load ptr, ptr %4, align 8
  %28 = getelementptr inbounds nuw %struct.FunctionCallInfoBaseData, ptr %27, i32 0, i32 5
  store i16 3, ptr %28, align 2
  br label %29

29:                                               ; preds = %13
  br label %30

30:                                               ; preds = %29
  %31 = load ptr, ptr %5, align 8
  %32 = call i64 @PointerGetDatum(ptr noundef %31)
  %33 = load ptr, ptr %4, align 8
  %34 = getelementptr inbounds nuw %struct.FunctionCallInfoBaseData, ptr %33, i32 0, i32 6
  %35 = getelementptr inbounds [0 x %struct.NullableDatum], ptr %34, i64 0, i64 0
  %36 = getelementptr inbounds nuw %struct.NullableDatum, ptr %35, i32 0, i32 0
  store i64 %32, ptr %36, align 8
  %37 = load ptr, ptr %4, align 8
  %38 = getelementptr inbounds nuw %struct.FunctionCallInfoBaseData, ptr %37, i32 0, i32 6
  %39 = getelementptr inbounds [0 x %struct.NullableDatum], ptr %38, i64 0, i64 0
  %40 = getelementptr inbounds nuw %struct.NullableDatum, ptr %39, i32 0, i32 1
  store i8 0, ptr %40, align 8
  %41 = call i64 @ObjectIdGetDatum(i32 noundef 21)
  %42 = load ptr, ptr %4, align 8
  %43 = getelementptr inbounds nuw %struct.FunctionCallInfoBaseData, ptr %42, i32 0, i32 6
  %44 = getelementptr inbounds [0 x %struct.NullableDatum], ptr %43, i64 0, i64 1
  %45 = getelementptr inbounds nuw %struct.NullableDatum, ptr %44, i32 0, i32 0
  store i64 %41, ptr %45, align 8
  %46 = load ptr, ptr %4, align 8
  %47 = getelementptr inbounds nuw %struct.FunctionCallInfoBaseData, ptr %46, i32 0, i32 6
  %48 = getelementptr inbounds [0 x %struct.NullableDatum], ptr %47, i64 0, i64 1
  %49 = getelementptr inbounds nuw %struct.NullableDatum, ptr %48, i32 0, i32 1
  store i8 0, ptr %49, align 8
  %50 = call i64 @Int32GetDatum(i32 noundef -1)
  %51 = load ptr, ptr %4, align 8
  %52 = getelementptr inbounds nuw %struct.FunctionCallInfoBaseData, ptr %51, i32 0, i32 6
  %53 = getelementptr inbounds [0 x %struct.NullableDatum], ptr %52, i64 0, i64 2
  %54 = getelementptr inbounds nuw %struct.NullableDatum, ptr %53, i32 0, i32 0
  store i64 %50, ptr %54, align 8
  %55 = load ptr, ptr %4, align 8
  %56 = getelementptr inbounds nuw %struct.FunctionCallInfoBaseData, ptr %55, i32 0, i32 6
  %57 = getelementptr inbounds [0 x %struct.NullableDatum], ptr %56, i64 0, i64 2
  %58 = getelementptr inbounds nuw %struct.NullableDatum, ptr %57, i32 0, i32 1
  store i8 0, ptr %58, align 8
  %59 = load ptr, ptr %4, align 8
  %60 = call i64 @array_recv(ptr noundef %59)
  %61 = call ptr @DatumGetPointer(i64 noundef %60)
  store ptr %61, ptr %6, align 8
  %62 = load ptr, ptr %6, align 8
  %63 = getelementptr inbounds nuw %struct.int2vector, ptr %62, i32 0, i32 1
  %64 = load i32, ptr %63, align 4
  %65 = icmp ne i32 %64, 1
  br i1 %65, label %88, label %66

66:                                               ; preds = %30
  %67 = load ptr, ptr %6, align 8
  %68 = getelementptr inbounds nuw %struct.int2vector, ptr %67, i32 0, i32 2
  %69 = load i32, ptr %68, align 4
  %70 = icmp ne i32 %69, 0
  br i1 %70, label %88, label %71

71:                                               ; preds = %66
  %72 = load ptr, ptr %6, align 8
  %73 = getelementptr inbounds nuw %struct.int2vector, ptr %72, i32 0, i32 3
  %74 = load i32, ptr %73, align 4
  %75 = icmp ne i32 %74, 21
  br i1 %75, label %88, label %76

76:                                               ; preds = %71
  %77 = load ptr, ptr %6, align 8
  %78 = getelementptr inbounds nuw i8, ptr %77, i64 16
  %79 = load ptr, ptr %6, align 8
  %80 = getelementptr inbounds nuw %struct.int2vector, ptr %79, i32 0, i32 1
  %81 = load i32, ptr %80, align 4
  %82 = sext i32 %81 to i64
  %83 = mul i64 4, %82
  %84 = getelementptr inbounds nuw i8, ptr %78, i64 %83
  %85 = getelementptr inbounds i32, ptr %84, i64 0
  %86 = load i32, ptr %85, align 4
  %87 = icmp ne i32 %86, 0
  br i1 %87, label %88, label %100

88:                                               ; preds = %76, %71, %66, %30
  br label %89

89:                                               ; preds = %88
  br i1 true, label %90, label %92

90:                                               ; preds = %89
  %91 = call zeroext i1 @errstart_cold(i32 noundef 21, ptr noundef null) #12
  br i1 %91, label %94, label %97

92:                                               ; preds = %89
  %93 = call zeroext i1 @errstart(i32 noundef 21, ptr noundef null)
  br i1 %93, label %94, label %97

94:                                               ; preds = %92, %90
  %95 = call i32 @errcode(i32 noundef 50462850)
  %96 = call i32 (ptr, ...) @errmsg(ptr noundef @.str.4)
  call void @errfinish(ptr noundef @.str.2, i32 noundef 264, ptr noundef @__func__.int2vectorrecv)
  br label %97

97:                                               ; preds = %94, %92, %90
  unreachable

98:                                               ; No predecessors!
  br label %99

99:                                               ; preds = %98
  br label %100

100:                                              ; preds = %99, %76
  %101 = load ptr, ptr %6, align 8
  %102 = call i64 @PointerGetDatum(ptr noundef %101)
  call void @llvm.lifetime.end.p0(i64 8, ptr %6) #10
  call void @llvm.lifetime.end.p0(i64 8, ptr %5) #10
  call void @llvm.lifetime.end.p0(i64 8, ptr %4) #10
  call void @llvm.lifetime.end.p0(i64 80, ptr %3) #10
  ret i64 %102
}