; Function Attrs: nounwind uwtable
define dso_local i64 @int2vectorrecv(ptr noundef readonly captures(none) %0) local_unnamed_addr #0 {
  %2 = alloca %union.anon, align 8
  call void @llvm.lifetime.start.p0(i64 80, ptr nonnull %2) #13
  %3 = getelementptr inbounds nuw i8, ptr %0, i64 32
  %4 = load i64, ptr %3, align 8
  %5 = load ptr, ptr %0, align 8
  store ptr %5, ptr %2, align 8
  %6 = getelementptr inbounds nuw i8, ptr %2, i64 8
  %7 = getelementptr inbounds nuw i8, ptr %2, i64 30
  call void @llvm.memset.p0.i64(ptr noundef nonnull align 8 dereferenceable(21) %6, i8 0, i64 21, i1 false)
  store i16 3, ptr %7, align 2
  %8 = getelementptr inbounds nuw i8, ptr %2, i64 32
  store i64 %4, ptr %8, align 8
  %9 = getelementptr inbounds nuw i8, ptr %2, i64 40
  store i8 0, ptr %9, align 8
  %10 = getelementptr inbounds nuw i8, ptr %2, i64 48
  store i64 21, ptr %10, align 8
  %11 = getelementptr inbounds nuw i8, ptr %2, i64 56
  store i8 0, ptr %11, align 8
  %12 = getelementptr inbounds nuw i8, ptr %2, i64 64
  store i64 -1, ptr %12, align 8
  %13 = getelementptr inbounds nuw i8, ptr %2, i64 72
  store i8 0, ptr %13, align 8
  %14 = call i64 @array_recv(ptr noundef nonnull %2) #13
  %15 = inttoptr i64 %14 to ptr
  %16 = getelementptr inbounds nuw i8, ptr %15, i64 4
  %17 = load i32, ptr %16, align 4
  %.not = icmp eq i32 %17, 1
  br i1 %.not, label %18, label %27

18:                                               ; preds = %1
  %19 = getelementptr inbounds nuw i8, ptr %15, i64 8
  %20 = load i32, ptr %19, align 4
  %.not22 = icmp eq i32 %20, 0
  br i1 %.not22, label %21, label %27

21:                                               ; preds = %18
  %22 = getelementptr inbounds nuw i8, ptr %15, i64 12
  %23 = load i32, ptr %22, align 4
  %.not23 = icmp eq i32 %23, 21
  br i1 %.not23, label %24, label %27

24:                                               ; preds = %21
  %25 = getelementptr inbounds nuw i8, ptr %15, i64 20
  %26 = load i32, ptr %25, align 4
  %.not24 = icmp eq i32 %26, 0
  br i1 %.not24, label %31, label %27

27:                                               ; preds = %24, %21, %18, %1
  %28 = call zeroext i1 @errstart_cold(i32 noundef 21, ptr noundef null) #15
  call void @llvm.assume(i1 %28)
  %29 = call i32 @errcode(i32 noundef 50462850) #13
  %30 = call i32 (ptr, ...) @errmsg(ptr noundef nonnull @.str.4) #13
  call void @errfinish(ptr noundef nonnull @.str.2, i32 noundef 264, ptr noundef nonnull @__func__.int2vectorrecv) #13
  unreachable

31:                                               ; preds = %24
  call void @llvm.lifetime.end.p0(i64 80, ptr nonnull %2) #13
  ret i64 %14
}